   1               		.file	"keymap.c"
   2               	__SP_H__ = 0x3e
   3               	__SP_L__ = 0x3d
   4               	__SREG__ = 0x3f
   5               	__tmp_reg__ = 0
   6               	__zero_reg__ = 1
   7               		.text
   8               	.Ltext0:
   9               		.cfi_sections	.debug_frame
  10               		.section	.text.update_tri_layer_RGB,"ax",@progbits
  11               	.global	update_tri_layer_RGB
  13               	update_tri_layer_RGB:
  14               	.LFB119:
  15               		.file 1 "keyboards/lily58/keymaps/zhin/keymap.c"
   1:keyboards/lily58/keymaps/zhin/keymap.c **** #include QMK_KEYBOARD_H
   2:keyboards/lily58/keymaps/zhin/keymap.c **** 
   3:keyboards/lily58/keymaps/zhin/keymap.c **** #ifdef PROTOCOL_LUFA
   4:keyboards/lily58/keymaps/zhin/keymap.c ****   #include "lufa.h"
   5:keyboards/lily58/keymaps/zhin/keymap.c ****   #include "split_util.h"
   6:keyboards/lily58/keymaps/zhin/keymap.c **** #endif
   7:keyboards/lily58/keymaps/zhin/keymap.c **** #ifdef SSD1306OLED
   8:keyboards/lily58/keymaps/zhin/keymap.c ****   #include "ssd1306.h"
   9:keyboards/lily58/keymaps/zhin/keymap.c **** #endif
  10:keyboards/lily58/keymaps/zhin/keymap.c **** 
  11:keyboards/lily58/keymaps/zhin/keymap.c **** 
  12:keyboards/lily58/keymaps/zhin/keymap.c **** extern keymap_config_t keymap_config;
  13:keyboards/lily58/keymaps/zhin/keymap.c **** 
  14:keyboards/lily58/keymaps/zhin/keymap.c **** #ifdef RGBLIGHT_ENABLE
  15:keyboards/lily58/keymaps/zhin/keymap.c **** //Following line allows macro to read current RGB settings
  16:keyboards/lily58/keymaps/zhin/keymap.c **** extern rgblight_config_t rgblight_config;
  17:keyboards/lily58/keymaps/zhin/keymap.c **** #endif
  18:keyboards/lily58/keymaps/zhin/keymap.c **** 
  19:keyboards/lily58/keymaps/zhin/keymap.c **** extern uint8_t is_master;
  20:keyboards/lily58/keymaps/zhin/keymap.c **** 
  21:keyboards/lily58/keymaps/zhin/keymap.c **** #define _QWERTY 0
  22:keyboards/lily58/keymaps/zhin/keymap.c **** #define _LOWER 1
  23:keyboards/lily58/keymaps/zhin/keymap.c **** #define _RAISE 2
  24:keyboards/lily58/keymaps/zhin/keymap.c **** #define _ADJUST 16
  25:keyboards/lily58/keymaps/zhin/keymap.c **** 
  26:keyboards/lily58/keymaps/zhin/keymap.c **** enum custom_keycodes {
  27:keyboards/lily58/keymaps/zhin/keymap.c ****   QWERTY = SAFE_RANGE,
  28:keyboards/lily58/keymaps/zhin/keymap.c ****   LOWER,
  29:keyboards/lily58/keymaps/zhin/keymap.c ****   RAISE,
  30:keyboards/lily58/keymaps/zhin/keymap.c ****   ADJUST,
  31:keyboards/lily58/keymaps/zhin/keymap.c **** };
  32:keyboards/lily58/keymaps/zhin/keymap.c **** 
  33:keyboards/lily58/keymaps/zhin/keymap.c **** const uint16_t PROGMEM keymaps[][MATRIX_ROWS][MATRIX_COLS] = {
  34:keyboards/lily58/keymaps/zhin/keymap.c **** 
  35:keyboards/lily58/keymaps/zhin/keymap.c **** /* QWERTY
  36:keyboards/lily58/keymaps/zhin/keymap.c ****  * ,-----------------------------------------.  ,-----------------------------------------.
  37:keyboards/lily58/keymaps/zhin/keymap.c ****  * | ESC  |   1  |   2  |   3  |   4  |   5  |  |   6  |   7  |   8  |   9  |   0  |   `  |
  38:keyboards/lily58/keymaps/zhin/keymap.c ****  * |------+------+------+------+------+------|  |------+------+------+------+------+------|
  39:keyboards/lily58/keymaps/zhin/keymap.c ****  * |Shift |   q  |   w  |   e  |   r  |   t  |  |   y  |   u  |   i  |   o  |   p  |      |
  40:keyboards/lily58/keymaps/zhin/keymap.c ****  * |------+------+------+------+------+------|  |------+------+------+------+------+------|
  41:keyboards/lily58/keymaps/zhin/keymap.c ****  * | CTRL |   a  |   s  |   d  |   f  |   g  |  |   h  |   j  |   k  |   l  |      |      |
  42:keyboards/lily58/keymaps/zhin/keymap.c ****  * |------+------+------+------+------+------|  |------+------+------+------+------+------|
  43:keyboards/lily58/keymaps/zhin/keymap.c ****  * |LOWER |   z  |   x  |   c  |   v  |   b  |  |   n  |   m  |      |  Tab | Alt  |RAISE |
  44:keyboards/lily58/keymaps/zhin/keymap.c ****  * |-----------------------------------------|  |-----------------------------------------|
  45:keyboards/lily58/keymaps/zhin/keymap.c ****  * |       |KC_LGUI|BACKSP | Space |         |  |        | Enter | Delete|KC_RGUI|        |
  46:keyboards/lily58/keymaps/zhin/keymap.c ****  * |------------------------------------------  ------------------------------------------|
  47:keyboards/lily58/keymaps/zhin/keymap.c **** 
  48:keyboards/lily58/keymaps/zhin/keymap.c ****  */
  49:keyboards/lily58/keymaps/zhin/keymap.c ****   [_QWERTY] = LAYOUT( \
  50:keyboards/lily58/keymaps/zhin/keymap.c ****     KC_ESC,   KC_1,   KC_2,    KC_3,    KC_4,    KC_5,                      KC_6,    KC_7,    KC_8,
  51:keyboards/lily58/keymaps/zhin/keymap.c ****     KC_LSFT,  KC_Q,   KC_W,    KC_E,    KC_R,    KC_T,                      KC_Y,    KC_U,    KC_I,
  52:keyboards/lily58/keymaps/zhin/keymap.c ****     KC_LCTRL, KC_A,   KC_S,    KC_D,    KC_F,    KC_G,                      KC_H,    KC_J,    KC_K,
  53:keyboards/lily58/keymaps/zhin/keymap.c ****     LOWER,    KC_Z,   KC_X,    KC_C,    KC_V,    KC_B,   XXXXXXX,  XXXXXXX, KC_N,    KC_M,    XXXXX
  54:keyboards/lily58/keymaps/zhin/keymap.c ****                                XXXXXXX, KC_LGUI, KC_BSPC,KC_SPC,   KC_ENT,  KC_DEL,  KC_RGUI, XXXXX
  55:keyboards/lily58/keymaps/zhin/keymap.c ****   ),
  56:keyboards/lily58/keymaps/zhin/keymap.c **** 
  57:keyboards/lily58/keymaps/zhin/keymap.c **** /* LOWER
  58:keyboards/lily58/keymaps/zhin/keymap.c ****  * ,------------------------------------------.                    ,-------------------------------
  59:keyboards/lily58/keymaps/zhin/keymap.c ****  * |  F1  |  F2  |  F3  |  F4  |  F5  |  F6   |                    |  F7  |  F8  |  F9  | F10  | F1
  60:keyboards/lily58/keymaps/zhin/keymap.c ****  * |------+------+------+------+------+-------|                    |------+------+------+------+---
  61:keyboards/lily58/keymaps/zhin/keymap.c ****  * |______|   =  |   ^  |   ~  |   |  |______ |                    |______|   [  |   ]  |   {  |   
  62:keyboards/lily58/keymaps/zhin/keymap.c ****  * |------+------+------+------+------+-------|                    |------+------+------+------+---
  63:keyboards/lily58/keymaps/zhin/keymap.c ****  * |______|   @  |   `  |   :  |   ;  |______ |-------.    ,-------|______|   +  |   -  |   *  |   
  64:keyboards/lily58/keymaps/zhin/keymap.c ****  * |------+------+------+------+------+-------|______ |    |______ |------+------+------+------+---
  65:keyboards/lily58/keymaps/zhin/keymap.c ****  * |______|   ,  |   .  |   ?  |   _  |______ |-------|    |-------|______|   <  |   >  |   \  |   
  66:keyboards/lily58/keymaps/zhin/keymap.c ****  * `------------------------------------------/       /     \      \-------------------------------
  67:keyboards/lily58/keymaps/zhin/keymap.c ****  *                   |______ |______|______| /______ /       \______\  |______|______|______|
  68:keyboards/lily58/keymaps/zhin/keymap.c ****  *                   `---------------------''-------'         '--------''-------------------'
  69:keyboards/lily58/keymaps/zhin/keymap.c ****  */
  70:keyboards/lily58/keymaps/zhin/keymap.c **** 
  71:keyboards/lily58/keymaps/zhin/keymap.c ****   [_LOWER] = LAYOUT( \
  72:keyboards/lily58/keymaps/zhin/keymap.c ****     KC_F1,   KC_F2,   KC_F3,   KC_F4,   KC_F5,   KC_F6,                     KC_F7,   KC_F8,   KC_F9
  73:keyboards/lily58/keymaps/zhin/keymap.c ****     _______, KC_PEQL, KC_CIRC, KC_TILD, KC_PIPE, _______,                   _______, KC_LBRC, KC_RB
  74:keyboards/lily58/keymaps/zhin/keymap.c ****     _______, KC_AT,   KC_GRV,  KC_COLN, KC_SCLN, _______,                   _______, KC_PPLS, KC_PM
  75:keyboards/lily58/keymaps/zhin/keymap.c ****     _______, KC_COMM, KC_DOT,  KC_QUES, KC_UNDS, _______, _______, _______, _______, KC_LT,   KC_GT
  76:keyboards/lily58/keymaps/zhin/keymap.c ****                                _______, _______, _______, _______, _______,  _______, _______, ____
  77:keyboards/lily58/keymaps/zhin/keymap.c ****   ),
  78:keyboards/lily58/keymaps/zhin/keymap.c **** 
  79:keyboards/lily58/keymaps/zhin/keymap.c **** /* RAISE
  80:keyboards/lily58/keymaps/zhin/keymap.c ****  * ,-----------------------------------------.                    ,--------------------------------
  81:keyboards/lily58/keymaps/zhin/keymap.c ****  * |______|______|______|______|______|______|                    |______|______|______|______|____
  82:keyboards/lily58/keymaps/zhin/keymap.c ****  * |------+------+------+------+------+------|                    |------+------+------+------+----
  83:keyboards/lily58/keymaps/zhin/keymap.c ****  * |______| Home | End  |______|______|______|                    |______|M_W_L |M_W_U |M_W_D | M_W
  84:keyboards/lily58/keymaps/zhin/keymap.c ****  * |------+------+------+------+------+------|                    |------+------+------+------+----
  85:keyboards/lily58/keymaps/zhin/keymap.c ****  * |______| AR_L |AR_Up |AR_Dn | AR_R |      |-------.    ,-------|______|M_Left| M_Up |M_Down|M_Ri
  86:keyboards/lily58/keymaps/zhin/keymap.c ****  * |------+------+------+------+------+------|______ |    |______ |------+------+------+------+----
  87:keyboards/lily58/keymaps/zhin/keymap.c ****  * |______| Cut  | Copy |Paste |______|______|-------|    |-------|______|M_Btn1|M_Btn2|M_btn3|M_bt
  88:keyboards/lily58/keymaps/zhin/keymap.c ****  * `-----------------------------------------/       /     \      \--------------------------------
  89:keyboards/lily58/keymaps/zhin/keymap.c ****  *                  |______ |______|______| /______ /       \______\  |M_S_0_|M_S_1_|M_S_2_|
  90:keyboards/lily58/keymaps/zhin/keymap.c ****  *                  `---------------------''-------'         '--------''-------------------'
  91:keyboards/lily58/keymaps/zhin/keymap.c ****  */
  92:keyboards/lily58/keymaps/zhin/keymap.c **** 
  93:keyboards/lily58/keymaps/zhin/keymap.c ****   [_RAISE] = LAYOUT( \
  94:keyboards/lily58/keymaps/zhin/keymap.c ****     _______, _______, _______, _______,  _______,  _______,                    _______, _______, __
  95:keyboards/lily58/keymaps/zhin/keymap.c ****     _______, KC_HOME, KC_END,  _______,  _______,  _______,                    _______, KC_WH_L, KC
  96:keyboards/lily58/keymaps/zhin/keymap.c ****     _______, KC_LEFT, KC_UP,   KC_DOWN,  KC_RIGHT, _______,                    _______, KC_MS_L, KC
  97:keyboards/lily58/keymaps/zhin/keymap.c ****     _______, KC_CUT,  KC_COPY, KC_PASTE, _______,  _______,  _______, _______, _______, KC_BTN1, KC
  98:keyboards/lily58/keymaps/zhin/keymap.c ****                                _______,  _______,  _______,  _______, _______, KC_ACL0, KC_ACL1, KC
  99:keyboards/lily58/keymaps/zhin/keymap.c ****   ),
 100:keyboards/lily58/keymaps/zhin/keymap.c **** 
 101:keyboards/lily58/keymaps/zhin/keymap.c **** /* ADJUST
 102:keyboards/lily58/keymaps/zhin/keymap.c ****  * ,-----------------------------------------.                    ,--------------------------------
 103:keyboards/lily58/keymaps/zhin/keymap.c ****  * |      |      |      |      |      |      |                    |      |      |      |      |    
 104:keyboards/lily58/keymaps/zhin/keymap.c ****  * |------+------+------+------+------+------|                    |------+------+------+------+----
 105:keyboards/lily58/keymaps/zhin/keymap.c ****  * |      |      |      |      |      |      |                    |      |      |      |      |    
 106:keyboards/lily58/keymaps/zhin/keymap.c ****  * |------+------+------+------+------+------|                    |------+------+------+------+----
 107:keyboards/lily58/keymaps/zhin/keymap.c ****  * |      |      |      |      |      |      |-------.    ,-------|      |      |RGB ON| HUE+ | SAT
 108:keyboards/lily58/keymaps/zhin/keymap.c ****  * |------+------+------+------+------+------|       |    |       |------+------+------+------+----
 109:keyboards/lily58/keymaps/zhin/keymap.c ****  * |      |      |      |      |      |      |-------|    |-------|      |      | MODE | HUE- | SAT
 110:keyboards/lily58/keymaps/zhin/keymap.c ****  * `-----------------------------------------/       /     \      \--------------------------------
 111:keyboards/lily58/keymaps/zhin/keymap.c ****  *                   |LOWER | LGUI | Alt  | /Space  /       \Enter \  |BackSP| RGUI |RAISE |
 112:keyboards/lily58/keymaps/zhin/keymap.c ****  *                   |      |      |      |/       /         \      \ |      |      |      |
 113:keyboards/lily58/keymaps/zhin/keymap.c ****  *                   `----------------------------'           '------''--------------------'
 114:keyboards/lily58/keymaps/zhin/keymap.c ****  */
 115:keyboards/lily58/keymaps/zhin/keymap.c **** 
 116:keyboards/lily58/keymaps/zhin/keymap.c ****     [_ADJUST] = LAYOUT( \
 117:keyboards/lily58/keymaps/zhin/keymap.c ****     XXXXXXX, XXXXXXX, XXXXXXX, XXXXXXX, XXXXXXX, XXXXXXX,                   XXXXXXX, XXXXXXX, XXXXX
 118:keyboards/lily58/keymaps/zhin/keymap.c ****     XXXXXXX, XXXXXXX, XXXXXXX, XXXXXXX, XXXXXXX, XXXXXXX,                   XXXXXXX, XXXXXXX, XXXXX
 119:keyboards/lily58/keymaps/zhin/keymap.c ****     XXXXXXX, XXXXXXX, XXXXXXX, XXXXXXX, XXXXXXX, XXXXXXX,                   XXXXXXX, XXXXXXX, RGB_T
 120:keyboards/lily58/keymaps/zhin/keymap.c ****     XXXXXXX, XXXXXXX, XXXXXXX, XXXXXXX, XXXXXXX, XXXXXXX, XXXXXXX, XXXXXXX, XXXXXXX, XXXXXXX, RGB_M
 121:keyboards/lily58/keymaps/zhin/keymap.c ****                                _______, _______, _______, _______, _______,  _______, _______, ____
 122:keyboards/lily58/keymaps/zhin/keymap.c ****     )
 123:keyboards/lily58/keymaps/zhin/keymap.c **** };
 124:keyboards/lily58/keymaps/zhin/keymap.c **** 
 125:keyboards/lily58/keymaps/zhin/keymap.c **** int RGB_current_mode;
 126:keyboards/lily58/keymaps/zhin/keymap.c **** 
 127:keyboards/lily58/keymaps/zhin/keymap.c **** // Setting ADJUST layer RGB back to default
 128:keyboards/lily58/keymaps/zhin/keymap.c **** void update_tri_layer_RGB(uint8_t layer1, uint8_t layer2, uint8_t layer3) {
  16               		.loc 1 128 0
  17               		.cfi_startproc
  18               	.LVL0:
  19 0000 CF92      		push r12
  20               	.LCFI0:
  21               		.cfi_def_cfa_offset 3
  22               		.cfi_offset 12, -2
  23 0002 DF92      		push r13
  24               	.LCFI1:
  25               		.cfi_def_cfa_offset 4
  26               		.cfi_offset 13, -3
  27 0004 EF92      		push r14
  28               	.LCFI2:
  29               		.cfi_def_cfa_offset 5
  30               		.cfi_offset 14, -4
  31 0006 FF92      		push r15
  32               	.LCFI3:
  33               		.cfi_def_cfa_offset 6
  34               		.cfi_offset 15, -5
  35 0008 0F93      		push r16
  36               	.LCFI4:
  37               		.cfi_def_cfa_offset 7
  38               		.cfi_offset 16, -6
  39 000a 1F93      		push r17
  40               	.LCFI5:
  41               		.cfi_def_cfa_offset 8
  42               		.cfi_offset 17, -7
  43               	/* prologue: function */
  44               	/* frame size = 0 */
  45               	/* stack size = 6 */
  46               	.L__stack_usage = 6
  47 000c 01E0      		ldi r16,lo8(1)
  48 000e 10E0      		ldi r17,0
  49 0010 20E0      		ldi r18,0
  50 0012 30E0      		ldi r19,0
  51 0014 6801      		movw r12,r16
  52 0016 7901      		movw r14,r18
  53 0018 00C0      		rjmp 2f
  54               		1:
  55 001a CC0C      		lsl r12
  56 001c DD1C      		rol r13
  57 001e EE1C      		rol r14
  58 0020 FF1C      		rol r15
  59               		2:
  60 0022 8A95      		dec r24
  61 0024 02F4      		brpl 1b
  62 0026 00C0      		rjmp 2f
  63               		1:
  64 0028 000F      		lsl r16
  65 002a 111F      		rol r17
  66 002c 221F      		rol r18
  67 002e 331F      		rol r19
  68               		2:
  69 0030 6A95      		dec r22
  70 0032 02F4      		brpl 1b
  71 0034 0C29      		or r16,r12
  72 0036 1D29      		or r17,r13
  73 0038 2E29      		or r18,r14
  74 003a 3F29      		or r19,r15
  75 003c C090 0000 		lds r12,layer_state
  76 0040 D090 0000 		lds r13,layer_state+1
  77 0044 E090 0000 		lds r14,layer_state+2
  78 0048 F090 0000 		lds r15,layer_state+3
  79 004c C022      		and r12,r16
  80 004e D122      		and r13,r17
  81 0050 E222      		and r14,r18
  82 0052 F322      		and r15,r19
 129:keyboards/lily58/keymaps/zhin/keymap.c ****   if (IS_LAYER_ON(layer1) && IS_LAYER_ON(layer2)) {
 130:keyboards/lily58/keymaps/zhin/keymap.c ****     layer_on(layer3);
  83               		.loc 1 130 0
  84 0054 842F      		mov r24,r20
  85               	.LVL1:
 129:keyboards/lily58/keymaps/zhin/keymap.c ****   if (IS_LAYER_ON(layer1) && IS_LAYER_ON(layer2)) {
  86               		.loc 1 129 0
  87 0056 C016      		cp r12,r16
  88 0058 D106      		cpc r13,r17
  89 005a E206      		cpc r14,r18
  90 005c F306      		cpc r15,r19
  91 005e 01F4      		brne .L2
  92               	/* epilogue start */
 131:keyboards/lily58/keymaps/zhin/keymap.c ****   } else {
 132:keyboards/lily58/keymaps/zhin/keymap.c ****     layer_off(layer3);
 133:keyboards/lily58/keymaps/zhin/keymap.c ****   }
 134:keyboards/lily58/keymaps/zhin/keymap.c **** }
  93               		.loc 1 134 0
  94 0060 1F91      		pop r17
  95 0062 0F91      		pop r16
  96 0064 FF90      		pop r15
  97 0066 EF90      		pop r14
  98 0068 DF90      		pop r13
  99 006a CF90      		pop r12
 130:keyboards/lily58/keymaps/zhin/keymap.c ****   } else {
 100               		.loc 1 130 0
 101 006c 0C94 0000 		jmp layer_on
 102               	.LVL2:
 103               	.L2:
 104               	/* epilogue start */
 105               		.loc 1 134 0
 106 0070 1F91      		pop r17
 107 0072 0F91      		pop r16
 108 0074 FF90      		pop r15
 109 0076 EF90      		pop r14
 110 0078 DF90      		pop r13
 111 007a CF90      		pop r12
 132:keyboards/lily58/keymaps/zhin/keymap.c ****   }
 112               		.loc 1 132 0
 113 007c 0C94 0000 		jmp layer_off
 114               	.LVL3:
 115               		.cfi_endproc
 116               	.LFE119:
 118               		.section	.text.matrix_init_user,"ax",@progbits
 119               	.global	matrix_init_user
 121               	matrix_init_user:
 122               	.LFB120:
 135:keyboards/lily58/keymaps/zhin/keymap.c **** 
 136:keyboards/lily58/keymaps/zhin/keymap.c **** void matrix_init_user(void) {
 123               		.loc 1 136 0
 124               		.cfi_startproc
 125               	/* prologue: function */
 126               	/* frame size = 0 */
 127               	/* stack size = 0 */
 128               	.L__stack_usage = 0
 137:keyboards/lily58/keymaps/zhin/keymap.c ****     #ifdef RGBLIGHT_ENABLE
 138:keyboards/lily58/keymaps/zhin/keymap.c ****       RGB_current_mode = rgblight_config.mode;
 139:keyboards/lily58/keymaps/zhin/keymap.c ****     #endif
 140:keyboards/lily58/keymaps/zhin/keymap.c ****     //SSD1306 OLED init, make sure to add #define SSD1306OLED in config.h
 141:keyboards/lily58/keymaps/zhin/keymap.c ****     #ifdef SSD1306OLED
 142:keyboards/lily58/keymaps/zhin/keymap.c ****         iota_gfx_init(!has_usb());   // turns on the display
 129               		.loc 1 142 0
 130 0000 0E94 0000 		call has_usb
 131               	.LVL4:
 132 0004 91E0      		ldi r25,lo8(1)
 133 0006 8927      		eor r24,r25
 134 0008 0C94 0000 		jmp iota_gfx_init
 135               	.LVL5:
 136               		.cfi_endproc
 137               	.LFE120:
 139               		.section	.text.matrix_scan_user,"ax",@progbits
 140               	.global	matrix_scan_user
 142               	matrix_scan_user:
 143               	.LFB121:
 143:keyboards/lily58/keymaps/zhin/keymap.c ****     #endif
 144:keyboards/lily58/keymaps/zhin/keymap.c **** }
 145:keyboards/lily58/keymaps/zhin/keymap.c **** 
 146:keyboards/lily58/keymaps/zhin/keymap.c **** //SSD1306 OLED update loop, make sure to add #define SSD1306OLED in config.h
 147:keyboards/lily58/keymaps/zhin/keymap.c **** #ifdef SSD1306OLED
 148:keyboards/lily58/keymaps/zhin/keymap.c **** 
 149:keyboards/lily58/keymaps/zhin/keymap.c **** // When add source files to SRC in rules.mk, you can use functions.
 150:keyboards/lily58/keymaps/zhin/keymap.c **** const char *read_layer_state(void);
 151:keyboards/lily58/keymaps/zhin/keymap.c **** const char *read_logo(void);
 152:keyboards/lily58/keymaps/zhin/keymap.c **** void set_keylog(uint16_t keycode, keyrecord_t *record);
 153:keyboards/lily58/keymaps/zhin/keymap.c **** const char *read_keylog(void);
 154:keyboards/lily58/keymaps/zhin/keymap.c **** const char *read_keylogs(void);
 155:keyboards/lily58/keymaps/zhin/keymap.c **** 
 156:keyboards/lily58/keymaps/zhin/keymap.c **** // const char *read_mode_icon(bool swap);
 157:keyboards/lily58/keymaps/zhin/keymap.c **** // const char *read_host_led_state(void);
 158:keyboards/lily58/keymaps/zhin/keymap.c **** // void set_timelog(void);
 159:keyboards/lily58/keymaps/zhin/keymap.c **** // const char *read_timelog(void);
 160:keyboards/lily58/keymaps/zhin/keymap.c **** 
 161:keyboards/lily58/keymaps/zhin/keymap.c **** void matrix_scan_user(void) {
 144               		.loc 1 161 0
 145               		.cfi_startproc
 146               	/* prologue: function */
 147               	/* frame size = 0 */
 148               	/* stack size = 0 */
 149               	.L__stack_usage = 0
 162:keyboards/lily58/keymaps/zhin/keymap.c ****    iota_gfx_task();
 150               		.loc 1 162 0
 151 0000 0C94 0000 		jmp iota_gfx_task
 152               	.LVL6:
 153               		.cfi_endproc
 154               	.LFE121:
 156               		.section	.text.matrix_render_user,"ax",@progbits
 157               	.global	matrix_render_user
 159               	matrix_render_user:
 160               	.LFB122:
 163:keyboards/lily58/keymaps/zhin/keymap.c **** }
 164:keyboards/lily58/keymaps/zhin/keymap.c **** 
 165:keyboards/lily58/keymaps/zhin/keymap.c **** void matrix_render_user(struct CharacterMatrix *matrix) {
 161               		.loc 1 165 0
 162               		.cfi_startproc
 163               	.LVL7:
 164 0000 CF93      		push r28
 165               	.LCFI6:
 166               		.cfi_def_cfa_offset 3
 167               		.cfi_offset 28, -2
 168 0002 DF93      		push r29
 169               	.LCFI7:
 170               		.cfi_def_cfa_offset 4
 171               		.cfi_offset 29, -3
 172               	/* prologue: function */
 173               	/* frame size = 0 */
 174               	/* stack size = 2 */
 175               	.L__stack_usage = 2
 176 0004 EC01      		movw r28,r24
 166:keyboards/lily58/keymaps/zhin/keymap.c ****   if (is_master) {
 177               		.loc 1 166 0
 178 0006 8091 0000 		lds r24,is_master
 179               	.LVL8:
 180 000a 8823      		tst r24
 181 000c 01F0      		breq .L7
 167:keyboards/lily58/keymaps/zhin/keymap.c ****     // If you want to change the display of OLED, you need to change here
 168:keyboards/lily58/keymaps/zhin/keymap.c ****     matrix_write_ln(matrix, read_layer_state());
 182               		.loc 1 168 0
 183 000e 0E94 0000 		call read_layer_state
 184               	.LVL9:
 185 0012 BC01      		movw r22,r24
 186 0014 CE01      		movw r24,r28
 187 0016 0E94 0000 		call matrix_write_ln
 188               	.LVL10:
 169:keyboards/lily58/keymaps/zhin/keymap.c ****     matrix_write_ln(matrix, read_keylog());
 189               		.loc 1 169 0
 190 001a 0E94 0000 		call read_keylog
 191               	.LVL11:
 192 001e BC01      		movw r22,r24
 193 0020 CE01      		movw r24,r28
 194 0022 0E94 0000 		call matrix_write_ln
 195               	.LVL12:
 170:keyboards/lily58/keymaps/zhin/keymap.c ****     matrix_write_ln(matrix, read_keylogs());
 196               		.loc 1 170 0
 197 0026 0E94 0000 		call read_keylogs
 198               	.LVL13:
 199 002a BC01      		movw r22,r24
 200 002c CE01      		movw r24,r28
 201               	/* epilogue start */
 171:keyboards/lily58/keymaps/zhin/keymap.c ****     //matrix_write_ln(matrix, read_mode_icon(keymap_config.swap_lalt_lgui));
 172:keyboards/lily58/keymaps/zhin/keymap.c ****     //matrix_write_ln(matrix, read_host_led_state());
 173:keyboards/lily58/keymaps/zhin/keymap.c ****     //matrix_write_ln(matrix, read_timelog());
 174:keyboards/lily58/keymaps/zhin/keymap.c ****   } else {
 175:keyboards/lily58/keymaps/zhin/keymap.c ****     matrix_write(matrix, read_logo());
 176:keyboards/lily58/keymaps/zhin/keymap.c ****   }
 177:keyboards/lily58/keymaps/zhin/keymap.c **** }
 202               		.loc 1 177 0
 203 002e DF91      		pop r29
 204 0030 CF91      		pop r28
 205               	.LVL14:
 170:keyboards/lily58/keymaps/zhin/keymap.c ****     matrix_write_ln(matrix, read_keylogs());
 206               		.loc 1 170 0
 207 0032 0C94 0000 		jmp matrix_write_ln
 208               	.LVL15:
 209               	.L7:
 175:keyboards/lily58/keymaps/zhin/keymap.c ****   }
 210               		.loc 1 175 0
 211 0036 0E94 0000 		call read_logo
 212               	.LVL16:
 213 003a BC01      		movw r22,r24
 214 003c CE01      		movw r24,r28
 215               	/* epilogue start */
 216               		.loc 1 177 0
 217 003e DF91      		pop r29
 218 0040 CF91      		pop r28
 219               	.LVL17:
 175:keyboards/lily58/keymaps/zhin/keymap.c ****   }
 220               		.loc 1 175 0
 221 0042 0C94 0000 		jmp matrix_write
 222               	.LVL18:
 223               		.cfi_endproc
 224               	.LFE122:
 226               		.section	.text.matrix_update,"ax",@progbits
 227               	.global	matrix_update
 229               	matrix_update:
 230               	.LFB123:
 178:keyboards/lily58/keymaps/zhin/keymap.c **** 
 179:keyboards/lily58/keymaps/zhin/keymap.c **** void matrix_update(struct CharacterMatrix *dest, const struct CharacterMatrix *source) {
 231               		.loc 1 179 0
 232               		.cfi_startproc
 233               	.LVL19:
 234 0000 0F93      		push r16
 235               	.LCFI8:
 236               		.cfi_def_cfa_offset 3
 237               		.cfi_offset 16, -2
 238 0002 1F93      		push r17
 239               	.LCFI9:
 240               		.cfi_def_cfa_offset 4
 241               		.cfi_offset 17, -3
 242 0004 CF93      		push r28
 243               	.LCFI10:
 244               		.cfi_def_cfa_offset 5
 245               		.cfi_offset 28, -4
 246 0006 DF93      		push r29
 247               	.LCFI11:
 248               		.cfi_def_cfa_offset 6
 249               		.cfi_offset 29, -5
 250               	/* prologue: function */
 251               	/* frame size = 0 */
 252               	/* stack size = 4 */
 253               	.L__stack_usage = 4
 254 0008 EC01      		movw r28,r24
 255 000a 8B01      		movw r16,r22
 180:keyboards/lily58/keymaps/zhin/keymap.c ****   if (memcmp(dest->display, source->display, sizeof(dest->display))) {
 256               		.loc 1 180 0
 257 000c 44E5      		ldi r20,lo8(84)
 258 000e 50E0      		ldi r21,0
 259 0010 0E94 0000 		call memcmp
 260               	.LVL20:
 261 0014 892B      		or r24,r25
 262 0016 01F0      		breq .L8
 181:keyboards/lily58/keymaps/zhin/keymap.c ****     memcpy(dest->display, source->display, sizeof(dest->display));
 263               		.loc 1 181 0
 264 0018 84E5      		ldi r24,lo8(84)
 265 001a F801      		movw r30,r16
 266 001c DE01      		movw r26,r28
 267               		0:
 268 001e 0190      		ld r0,Z+
 269 0020 0D92      		st X+,r0
 270 0022 8A95      		dec r24
 271 0024 01F4      		brne 0b
 182:keyboards/lily58/keymaps/zhin/keymap.c ****     dest->dirty = true;
 272               		.loc 1 182 0
 273 0026 CA5A      		subi r28,-86
 274 0028 DF4F      		sbci r29,-1
 275               	.LVL21:
 276 002a 81E0      		ldi r24,lo8(1)
 277 002c 8883      		st Y,r24
 278               	.LVL22:
 279               	.L8:
 280               	/* epilogue start */
 183:keyboards/lily58/keymaps/zhin/keymap.c ****   }
 184:keyboards/lily58/keymaps/zhin/keymap.c **** }
 281               		.loc 1 184 0
 282 002e DF91      		pop r29
 283 0030 CF91      		pop r28
 284 0032 1F91      		pop r17
 285 0034 0F91      		pop r16
 286               	.LVL23:
 287 0036 0895      		ret
 288               		.cfi_endproc
 289               	.LFE123:
 291               		.section	.text.iota_gfx_task_user,"ax",@progbits
 292               	.global	iota_gfx_task_user
 294               	iota_gfx_task_user:
 295               	.LFB124:
 185:keyboards/lily58/keymaps/zhin/keymap.c **** 
 186:keyboards/lily58/keymaps/zhin/keymap.c **** void iota_gfx_task_user(void) {
 296               		.loc 1 186 0
 297               		.cfi_startproc
 298 0000 CF93      		push r28
 299               	.LCFI12:
 300               		.cfi_def_cfa_offset 3
 301               		.cfi_offset 28, -2
 302 0002 DF93      		push r29
 303               	.LCFI13:
 304               		.cfi_def_cfa_offset 4
 305               		.cfi_offset 29, -3
 306 0004 CDB7      		in r28,__SP_L__
 307 0006 DEB7      		in r29,__SP_H__
 308               	.LCFI14:
 309               		.cfi_def_cfa_register 28
 310 0008 C755      		subi r28,87
 311 000a D109      		sbc r29,__zero_reg__
 312               	.LCFI15:
 313               		.cfi_def_cfa_offset 91
 314 000c 0FB6      		in __tmp_reg__,__SREG__
 315 000e F894      		cli
 316 0010 DEBF      		out __SP_H__,r29
 317 0012 0FBE      		out __SREG__,__tmp_reg__
 318 0014 CDBF      		out __SP_L__,r28
 319               	/* prologue: function */
 320               	/* frame size = 87 */
 321               	/* stack size = 89 */
 322               	.L__stack_usage = 89
 187:keyboards/lily58/keymaps/zhin/keymap.c ****   struct CharacterMatrix matrix;
 188:keyboards/lily58/keymaps/zhin/keymap.c ****   matrix_clear(&matrix);
 323               		.loc 1 188 0
 324 0016 CE01      		movw r24,r28
 325 0018 0196      		adiw r24,1
 326 001a 0E94 0000 		call matrix_clear
 327               	.LVL24:
 189:keyboards/lily58/keymaps/zhin/keymap.c ****   matrix_render_user(&matrix);
 328               		.loc 1 189 0
 329 001e CE01      		movw r24,r28
 330 0020 0196      		adiw r24,1
 331 0022 0E94 0000 		call matrix_render_user
 332               	.LVL25:
 190:keyboards/lily58/keymaps/zhin/keymap.c ****   matrix_update(&display, &matrix);
 333               		.loc 1 190 0
 334 0026 BE01      		movw r22,r28
 335 0028 6F5F      		subi r22,-1
 336 002a 7F4F      		sbci r23,-1
 337 002c 80E0      		ldi r24,lo8(display)
 338 002e 90E0      		ldi r25,hi8(display)
 339 0030 0E94 0000 		call matrix_update
 340               	.LVL26:
 341               	/* epilogue start */
 191:keyboards/lily58/keymaps/zhin/keymap.c **** }
 342               		.loc 1 191 0
 343 0034 C95A      		subi r28,-87
 344 0036 DF4F      		sbci r29,-1
 345 0038 0FB6      		in __tmp_reg__,__SREG__
 346 003a F894      		cli
 347 003c DEBF      		out __SP_H__,r29
 348 003e 0FBE      		out __SREG__,__tmp_reg__
 349 0040 CDBF      		out __SP_L__,r28
 350 0042 DF91      		pop r29
 351 0044 CF91      		pop r28
 352 0046 0895      		ret
 353               		.cfi_endproc
 354               	.LFE124:
 356               		.section	.text.process_record_user,"ax",@progbits
 357               	.global	process_record_user
 359               	process_record_user:
 360               	.LFB125:
 192:keyboards/lily58/keymaps/zhin/keymap.c **** #endif//SSD1306OLED
 193:keyboards/lily58/keymaps/zhin/keymap.c **** 
 194:keyboards/lily58/keymaps/zhin/keymap.c **** bool process_record_user(uint16_t keycode, keyrecord_t *record) {
 361               		.loc 1 194 0
 362               		.cfi_startproc
 363               	.LVL27:
 364 0000 0F93      		push r16
 365               	.LCFI16:
 366               		.cfi_def_cfa_offset 3
 367               		.cfi_offset 16, -2
 368 0002 1F93      		push r17
 369               	.LCFI17:
 370               		.cfi_def_cfa_offset 4
 371               		.cfi_offset 17, -3
 372 0004 CF93      		push r28
 373               	.LCFI18:
 374               		.cfi_def_cfa_offset 5
 375               		.cfi_offset 28, -4
 376 0006 DF93      		push r29
 377               	.LCFI19:
 378               		.cfi_def_cfa_offset 6
 379               		.cfi_offset 29, -5
 380               	/* prologue: function */
 381               	/* frame size = 0 */
 382               	/* stack size = 4 */
 383               	.L__stack_usage = 4
 384 0008 8C01      		movw r16,r24
 385 000a EB01      		movw r28,r22
 195:keyboards/lily58/keymaps/zhin/keymap.c ****   if (record->event.pressed) {
 386               		.loc 1 195 0
 387 000c 8A81      		ldd r24,Y+2
 388               	.LVL28:
 389 000e 8823      		tst r24
 390 0010 01F0      		breq .L15
 196:keyboards/lily58/keymaps/zhin/keymap.c **** #ifdef SSD1306OLED
 197:keyboards/lily58/keymaps/zhin/keymap.c ****     set_keylog(keycode, record);
 391               		.loc 1 197 0
 392 0012 C801      		movw r24,r16
 393 0014 0E94 0000 		call set_keylog
 394               	.LVL29:
 395               	.L15:
 198:keyboards/lily58/keymaps/zhin/keymap.c **** #endif
 199:keyboards/lily58/keymaps/zhin/keymap.c ****     // set_timelog();
 200:keyboards/lily58/keymaps/zhin/keymap.c ****   }
 201:keyboards/lily58/keymaps/zhin/keymap.c **** 
 202:keyboards/lily58/keymaps/zhin/keymap.c ****   switch (keycode) {
 396               		.loc 1 202 0
 397 0018 013F      		cpi r16,-15
 398 001a 8CE5      		ldi r24,92
 399 001c 1807      		cpc r17,r24
 400 001e 01F0      		breq .L17
 401 0020 00F4      		brsh .L18
 402 0022 003F      		cpi r16,-16
 403 0024 1C45      		sbci r17,92
 404 0026 01F0      		breq .L19
 405 0028 00C0      		rjmp .L25
 406               	.L18:
 407 002a 023F      		cpi r16,-14
 408 002c 8CE5      		ldi r24,92
 409 002e 1807      		cpc r17,r24
 410 0030 01F0      		breq .L20
 411 0032 033F      		cpi r16,-13
 412 0034 1C45      		sbci r17,92
 413 0036 01F0      		breq .L21
 414 0038 00C0      		rjmp .L25
 415               	.L19:
 203:keyboards/lily58/keymaps/zhin/keymap.c ****     case QWERTY:
 204:keyboards/lily58/keymaps/zhin/keymap.c ****       if (record->event.pressed) {
 416               		.loc 1 204 0
 417 003a CA81      		ldd r28,Y+2
 418               	.LVL30:
 419 003c CC23      		tst r28
 420 003e 01F0      		breq .L16
 205:keyboards/lily58/keymaps/zhin/keymap.c ****         set_single_persistent_default_layer(_QWERTY);
 421               		.loc 1 205 0
 422 0040 80E0      		ldi r24,0
 423 0042 0E94 0000 		call set_single_persistent_default_layer
 424               	.LVL31:
 425 0046 00C0      		rjmp .L32
 426               	.LVL32:
 427               	.L17:
 206:keyboards/lily58/keymaps/zhin/keymap.c ****       }
 207:keyboards/lily58/keymaps/zhin/keymap.c ****       return false;
 208:keyboards/lily58/keymaps/zhin/keymap.c ****       break;
 209:keyboards/lily58/keymaps/zhin/keymap.c ****     case LOWER:
 210:keyboards/lily58/keymaps/zhin/keymap.c ****       if (record->event.pressed) {
 428               		.loc 1 210 0
 429 0048 CA81      		ldd r28,Y+2
 430               	.LVL33:
 211:keyboards/lily58/keymaps/zhin/keymap.c ****         layer_on(_LOWER);
 431               		.loc 1 211 0
 432 004a 81E0      		ldi r24,lo8(1)
 433 004c 00C0      		rjmp .L35
 434               	.LVL34:
 435               	.L20:
 212:keyboards/lily58/keymaps/zhin/keymap.c ****         update_tri_layer_RGB(_LOWER, _RAISE, _ADJUST);
 213:keyboards/lily58/keymaps/zhin/keymap.c ****       } else {
 214:keyboards/lily58/keymaps/zhin/keymap.c ****         layer_off(_LOWER);
 215:keyboards/lily58/keymaps/zhin/keymap.c ****         update_tri_layer_RGB(_LOWER, _RAISE, _ADJUST);
 216:keyboards/lily58/keymaps/zhin/keymap.c ****       }
 217:keyboards/lily58/keymaps/zhin/keymap.c ****       return false;
 218:keyboards/lily58/keymaps/zhin/keymap.c ****       break;
 219:keyboards/lily58/keymaps/zhin/keymap.c ****     case RAISE:
 220:keyboards/lily58/keymaps/zhin/keymap.c ****       if (record->event.pressed) {
 436               		.loc 1 220 0
 437 004e CA81      		ldd r28,Y+2
 438               	.LVL35:
 221:keyboards/lily58/keymaps/zhin/keymap.c ****         layer_on(_RAISE);
 439               		.loc 1 221 0
 440 0050 82E0      		ldi r24,lo8(2)
 441               	.L35:
 220:keyboards/lily58/keymaps/zhin/keymap.c ****         layer_on(_RAISE);
 442               		.loc 1 220 0
 443 0052 CC23      		tst r28
 444 0054 01F0      		breq .L23
 445               		.loc 1 221 0
 446 0056 0E94 0000 		call layer_on
 447               	.LVL36:
 222:keyboards/lily58/keymaps/zhin/keymap.c ****         update_tri_layer_RGB(_LOWER, _RAISE, _ADJUST);
 448               		.loc 1 222 0
 449 005a 40E1      		ldi r20,lo8(16)
 450 005c 62E0      		ldi r22,lo8(2)
 451 005e 81E0      		ldi r24,lo8(1)
 452 0060 0E94 0000 		call update_tri_layer_RGB
 453               	.LVL37:
 454 0064 00C0      		rjmp .L32
 455               	.L23:
 223:keyboards/lily58/keymaps/zhin/keymap.c ****       } else {
 224:keyboards/lily58/keymaps/zhin/keymap.c ****         layer_off(_RAISE);
 456               		.loc 1 224 0
 457 0066 0E94 0000 		call layer_off
 458               	.LVL38:
 225:keyboards/lily58/keymaps/zhin/keymap.c ****         update_tri_layer_RGB(_LOWER, _RAISE, _ADJUST);
 459               		.loc 1 225 0
 460 006a 40E1      		ldi r20,lo8(16)
 461 006c 62E0      		ldi r22,lo8(2)
 462 006e 81E0      		ldi r24,lo8(1)
 463 0070 0E94 0000 		call update_tri_layer_RGB
 464               	.LVL39:
 465 0074 00C0      		rjmp .L16
 466               	.LVL40:
 467               	.L21:
 226:keyboards/lily58/keymaps/zhin/keymap.c ****       }
 227:keyboards/lily58/keymaps/zhin/keymap.c ****       return false;
 228:keyboards/lily58/keymaps/zhin/keymap.c ****       break;
 229:keyboards/lily58/keymaps/zhin/keymap.c ****     case ADJUST:
 230:keyboards/lily58/keymaps/zhin/keymap.c ****         if (record->event.pressed) {
 468               		.loc 1 230 0
 469 0076 CA81      		ldd r28,Y+2
 470               	.LVL41:
 231:keyboards/lily58/keymaps/zhin/keymap.c ****           layer_on(_ADJUST);
 471               		.loc 1 231 0
 472 0078 80E1      		ldi r24,lo8(16)
 230:keyboards/lily58/keymaps/zhin/keymap.c ****           layer_on(_ADJUST);
 473               		.loc 1 230 0
 474 007a CC23      		tst r28
 475 007c 01F0      		breq .L24
 476               		.loc 1 231 0
 477 007e 0E94 0000 		call layer_on
 478               	.LVL42:
 479               	.L32:
 232:keyboards/lily58/keymaps/zhin/keymap.c ****         } else {
 233:keyboards/lily58/keymaps/zhin/keymap.c ****           layer_off(_ADJUST);
 234:keyboards/lily58/keymaps/zhin/keymap.c ****         }
 235:keyboards/lily58/keymaps/zhin/keymap.c ****         return false;
 480               		.loc 1 235 0
 481 0082 C0E0      		ldi r28,0
 482 0084 00C0      		rjmp .L16
 483               	.L24:
 233:keyboards/lily58/keymaps/zhin/keymap.c ****         }
 484               		.loc 1 233 0
 485 0086 0E94 0000 		call layer_off
 486               	.LVL43:
 487 008a 00C0      		rjmp .L16
 488               	.LVL44:
 489               	.L25:
 236:keyboards/lily58/keymaps/zhin/keymap.c ****         break;
 237:keyboards/lily58/keymaps/zhin/keymap.c ****   }
 238:keyboards/lily58/keymaps/zhin/keymap.c ****   return true;
 490               		.loc 1 238 0
 491 008c C1E0      		ldi r28,lo8(1)
 492               	.LVL45:
 493               	.L16:
 239:keyboards/lily58/keymaps/zhin/keymap.c **** }
 494               		.loc 1 239 0
 495 008e 8C2F      		mov r24,r28
 496               	/* epilogue start */
 497 0090 DF91      		pop r29
 498 0092 CF91      		pop r28
 499 0094 1F91      		pop r17
 500 0096 0F91      		pop r16
 501               	.LVL46:
 502 0098 0895      		ret
 503               		.cfi_endproc
 504               	.LFE125:
 506               		.comm	RGB_current_mode,2,1
 507               	.global	keymaps
 508               		.section	.progmem.data.keymaps,"a",@progbits
 511               	keymaps:
 512 0000 2900      		.word	41
 513 0002 1E00      		.word	30
 514 0004 1F00      		.word	31
 515 0006 2000      		.word	32
 516 0008 2100      		.word	33
 517 000a 2200      		.word	34
 518 000c E100      		.word	225
 519 000e 1400      		.word	20
 520 0010 1A00      		.word	26
 521 0012 0800      		.word	8
 522 0014 1500      		.word	21
 523 0016 1700      		.word	23
 524 0018 E000      		.word	224
 525 001a 0400      		.word	4
 526 001c 1600      		.word	22
 527 001e 0700      		.word	7
 528 0020 0900      		.word	9
 529 0022 0A00      		.word	10
 530 0024 F15C      		.word	23793
 531 0026 1D00      		.word	29
 532 0028 1B00      		.word	27
 533 002a 0600      		.word	6
 534 002c 1900      		.word	25
 535 002e 0500      		.word	5
 536 0030 0000      		.word	0
 537 0032 0000      		.word	0
 538 0034 E300      		.word	227
 539 0036 2A00      		.word	42
 540 0038 2C00      		.word	44
 541 003a 0000      		.word	0
 542 003c 3500      		.word	53
 543 003e 2700      		.word	39
 544 0040 2600      		.word	38
 545 0042 2500      		.word	37
 546 0044 2400      		.word	36
 547 0046 2300      		.word	35
 548 0048 0000      		.word	0
 549 004a 1300      		.word	19
 550 004c 1200      		.word	18
 551 004e 0C00      		.word	12
 552 0050 1800      		.word	24
 553 0052 1C00      		.word	28
 554 0054 0000      		.word	0
 555 0056 0000      		.word	0
 556 0058 0F00      		.word	15
 557 005a 0E00      		.word	14
 558 005c 0D00      		.word	13
 559 005e 0B00      		.word	11
 560 0060 F25C      		.word	23794
 561 0062 E600      		.word	230
 562 0064 2B00      		.word	43
 563 0066 0000      		.word	0
 564 0068 1000      		.word	16
 565 006a 1100      		.word	17
 566 006c 0000      		.word	0
 567 006e 0000      		.word	0
 568 0070 E700      		.word	231
 569 0072 4C00      		.word	76
 570 0074 2800      		.word	40
 571 0076 0000      		.word	0
 572 0078 3A00      		.word	58
 573 007a 3B00      		.word	59
 574 007c 3C00      		.word	60
 575 007e 3D00      		.word	61
 576 0080 3E00      		.word	62
 577 0082 3F00      		.word	63
 578 0084 0100      		.word	1
 579 0086 6700      		.word	103
 580 0088 2302      		.word	547
 581 008a 3502      		.word	565
 582 008c 3102      		.word	561
 583 008e 0100      		.word	1
 584 0090 0100      		.word	1
 585 0092 1F02      		.word	543
 586 0094 3500      		.word	53
 587 0096 3302      		.word	563
 588 0098 3300      		.word	51
 589 009a 0100      		.word	1
 590 009c 0100      		.word	1
 591 009e 3600      		.word	54
 592 00a0 3700      		.word	55
 593 00a2 3802      		.word	568
 594 00a4 2D02      		.word	557
 595 00a6 0100      		.word	1
 596 00a8 0000      		.word	0
 597 00aa 0100      		.word	1
 598 00ac 0100      		.word	1
 599 00ae 0100      		.word	1
 600 00b0 0100      		.word	1
 601 00b2 0100      		.word	1
 602 00b4 4500      		.word	69
 603 00b6 4400      		.word	68
 604 00b8 4300      		.word	67
 605 00ba 4200      		.word	66
 606 00bc 4100      		.word	65
 607 00be 4000      		.word	64
 608 00c0 0100      		.word	1
 609 00c2 3002      		.word	560
 610 00c4 2F02      		.word	559
 611 00c6 3000      		.word	48
 612 00c8 2F00      		.word	47
 613 00ca 0100      		.word	1
 614 00cc 0100      		.word	1
 615 00ce 5400      		.word	84
 616 00d0 5500      		.word	85
 617 00d2 5600      		.word	86
 618 00d4 5700      		.word	87
 619 00d6 0100      		.word	1
 620 00d8 0100      		.word	1
 621 00da 3802      		.word	568
 622 00dc 3100      		.word	49
 623 00de 3702      		.word	567
 624 00e0 3602      		.word	566
 625 00e2 0100      		.word	1
 626 00e4 0000      		.word	0
 627 00e6 0100      		.word	1
 628 00e8 0100      		.word	1
 629 00ea 0100      		.word	1
 630 00ec 0100      		.word	1
 631 00ee 0100      		.word	1
 632 00f0 0100      		.word	1
 633 00f2 0100      		.word	1
 634 00f4 0100      		.word	1
 635 00f6 0100      		.word	1
 636 00f8 0100      		.word	1
 637 00fa 0100      		.word	1
 638 00fc 0100      		.word	1
 639 00fe 4A00      		.word	74
 640 0100 4D00      		.word	77
 641 0102 0100      		.word	1
 642 0104 0100      		.word	1
 643 0106 0100      		.word	1
 644 0108 0100      		.word	1
 645 010a 5000      		.word	80
 646 010c 5200      		.word	82
 647 010e 5100      		.word	81
 648 0110 4F00      		.word	79
 649 0112 0100      		.word	1
 650 0114 0100      		.word	1
 651 0116 7B00      		.word	123
 652 0118 7C00      		.word	124
 653 011a 7D00      		.word	125
 654 011c 0100      		.word	1
 655 011e 0100      		.word	1
 656 0120 0000      		.word	0
 657 0122 0100      		.word	1
 658 0124 0100      		.word	1
 659 0126 0100      		.word	1
 660 0128 0100      		.word	1
 661 012a 0100      		.word	1
 662 012c 0100      		.word	1
 663 012e 0100      		.word	1
 664 0130 0100      		.word	1
 665 0132 0100      		.word	1
 666 0134 0100      		.word	1
 667 0136 0100      		.word	1
 668 0138 0100      		.word	1
 669 013a FC00      		.word	252
 670 013c FA00      		.word	250
 671 013e F900      		.word	249
 672 0140 FB00      		.word	251
 673 0142 0100      		.word	1
 674 0144 0100      		.word	1
 675 0146 F300      		.word	243
 676 0148 F100      		.word	241
 677 014a F000      		.word	240
 678 014c F200      		.word	242
 679 014e 0100      		.word	1
 680 0150 0100      		.word	1
 681 0152 F700      		.word	247
 682 0154 F600      		.word	246
 683 0156 F500      		.word	245
 684 0158 F400      		.word	244
 685 015a 0100      		.word	1
 686 015c 0000      		.word	0
 687 015e FF00      		.word	255
 688 0160 FE00      		.word	254
 689 0162 FD00      		.word	253
 690 0164 0100      		.word	1
 691 0166 0100      		.word	1
 692 0168 0000 0000 		.zero	1560
 692      0000 0000 
 692      0000 0000 
 692      0000 0000 
 692      0000 0000 
 693 0780 0000      		.word	0
 694 0782 0000      		.word	0
 695 0784 0000      		.word	0
 696 0786 0000      		.word	0
 697 0788 0000      		.word	0
 698 078a 0000      		.word	0
 699 078c 0000      		.word	0
 700 078e 0000      		.word	0
 701 0790 0000      		.word	0
 702 0792 0000      		.word	0
 703 0794 0000      		.word	0
 704 0796 0000      		.word	0
 705 0798 0000      		.word	0
 706 079a 0000      		.word	0
 707 079c 0000      		.word	0
 708 079e 0000      		.word	0
 709 07a0 0000      		.word	0
 710 07a2 0000      		.word	0
 711 07a4 0000      		.word	0
 712 07a6 0000      		.word	0
 713 07a8 0000      		.word	0
 714 07aa 0000      		.word	0
 715 07ac 0000      		.word	0
 716 07ae 0000      		.word	0
 717 07b0 0000      		.word	0
 718 07b2 0100      		.word	1
 719 07b4 0100      		.word	1
 720 07b6 0100      		.word	1
 721 07b8 0100      		.word	1
 722 07ba 0000      		.word	0
 723 07bc 0000      		.word	0
 724 07be 0000      		.word	0
 725 07c0 0000      		.word	0
 726 07c2 0000      		.word	0
 727 07c4 0000      		.word	0
 728 07c6 0000      		.word	0
 729 07c8 0000      		.word	0
 730 07ca 0000      		.word	0
 731 07cc 0000      		.word	0
 732 07ce 0000      		.word	0
 733 07d0 0000      		.word	0
 734 07d2 0000      		.word	0
 735 07d4 C95C      		.word	23753
 736 07d6 C75C      		.word	23751
 737 07d8 C55C      		.word	23749
 738 07da C25C      		.word	23746
 739 07dc 0000      		.word	0
 740 07de 0000      		.word	0
 741 07e0 CA5C      		.word	23754
 742 07e2 C85C      		.word	23752
 743 07e4 C65C      		.word	23750
 744 07e6 C35C      		.word	23747
 745 07e8 0000      		.word	0
 746 07ea 0000      		.word	0
 747 07ec 0000      		.word	0
 748 07ee 0100      		.word	1
 749 07f0 0100      		.word	1
 750 07f2 0100      		.word	1
 751 07f4 0100      		.word	1
 752 07f6 0000      		.word	0
 753               		.comm	display,87,1
 754               		.text
 755               	.Letext0:
 756               		.file 2 "/usr/lib/avr/include/stdint.h"
 757               		.file 3 "/usr/lib/gcc/avr/4.9.2/include/stddef.h"
 758               		.file 4 "tmk_core/common/keyboard.h"
 759               		.file 5 "tmk_core/common/keycode.h"
 760               		.file 6 "tmk_core/common/action.h"
 761               		.file 7 "tmk_core/common/report.h"
 762               		.file 8 "quantum/quantum_keycodes.h"
 763               		.file 9 "keyboards/lily58/ssd1306.h"
 764               		.file 10 "quantum/quantum.h"
 765               		.file 11 "tmk_core/common/action_util.h"
 766               		.file 12 "lib/lufa/LUFA/Drivers/USB/Core/USBTask.h"
 767               		.file 13 "tmk_core/common/action_layer.h"
 768               		.file 14 "keyboards/lily58/split_util.h"
 769               		.file 15 "/usr/lib/avr/include/string.h"